; Function Attrs: mustprogress nounwind uwtable
define hidden void @_ZN4llvh23SmallVectorMemoryBufferD2Ev(ptr noundef nonnull align 8 dereferenceable(72) %this) unnamed_addr #4 align 2 {
entry:
  store ptr getelementptr inbounds ({ [6 x ptr] }, ptr @_ZTVN4llvh23SmallVectorMemoryBufferE, i64 0, i32 0, i64 2), ptr %this, align 8
  %BufferName = getelementptr inbounds i8, ptr %this, i64 40
  tail call void @_ZNSt7__cxx1112basic_stringIcSt11char_traitsIcESaIcEED1Ev(ptr noundef nonnull align 8 dereferenceable(32) %BufferName) #22
  %SV = getelementptr inbounds i8, ptr %this, i64 24
  %0 = load ptr, ptr %SV, align 8
  %cmp.i.i.i = icmp eq ptr %0, %BufferName
  br i1 %cmp.i.i.i, label %_ZN4llvh11SmallVectorIcLj0EED2Ev.exit, label %if.then.i.i

if.then.i.i:                                      ; preds = %entry
  tail call void @free(ptr noundef %0) #22
  br label %_ZN4llvh11SmallVectorIcLj0EED2Ev.exit

_ZN4llvh11SmallVectorIcLj0EED2Ev.exit:            ; preds = %entry, %if.then.i.i
  ret void
}